; Function Attrs: mustprogress uwtable
define void @_ZN5nblib23GmxNBForceCalculatorCpu14updatePairlistEN3gmx8ArrayRefINS1_11BasicVectorIfEEEERKNS_3BoxE(ptr nocapture noundef nonnull readonly align 8 dereferenceable(8) %0, ptr %1, ptr %2, ptr noundef nonnull align 4 dereferenceable(36) %3) local_unnamed_addr #0 align 2 {
  %5 = load ptr, ptr %0, align 8
  %6 = ptrtoint ptr %2 to i64
  %7 = ptrtoint ptr %1 to i64
  %8 = sub i64 %6, %7
  %9 = getelementptr inbounds i8, ptr %1, i64 %8
  tail call void @_ZN5nblib23GmxNBForceCalculatorCpu7CpuImpl14updatePairlistEN3gmx8ArrayRefINS2_11BasicVectorIfEEEERKNS_3BoxE(ptr noundef nonnull align 8 dereferenceable(2584) %5, ptr %1, ptr %9, ptr noundef nonnull align 4 dereferenceable(36) %3)
  ret void
}